; Function Attrs: mustprogress uwtable
define void @_ZN3net10QuicFramer12SetDecrypterENS_15EncryptionLevelEPNS_13QuicDecrypterE(ptr noundef nonnull align 8 captures(none) dereferenceable(408) initializes((312, 313)) %0, i8 noundef signext %1, ptr noundef %2) local_unnamed_addr #0 align 2 personality ptr @__gxx_personality_v0 {
  %4 = getelementptr inbounds nuw i8, ptr %0, i64 296
  %5 = load ptr, ptr %4, align 8, !tbaa !68
  store ptr %2, ptr %4, align 8, !tbaa !68
  %.not.i.i = icmp eq ptr %5, null
  br i1 %.not.i.i, label %_ZNSt10unique_ptrIN3net13QuicDecrypterESt14default_deleteIS1_EE5resetEPS1_.exit, label %_ZNKSt14default_deleteIN3net13QuicDecrypterEEclEPS1_.exit.i.i

_ZNKSt14default_deleteIN3net13QuicDecrypterEEclEPS1_.exit.i.i: ; preds = %3
  %6 = load ptr, ptr %5, align 8, !tbaa !3
  %7 = getelementptr inbounds nuw i8, ptr %6, i64 8
  %8 = load ptr, ptr %7, align 8
  tail call void %8(ptr noundef nonnull align 8 dereferenceable(8) %5) #26
  br label %_ZNSt10unique_ptrIN3net13QuicDecrypterESt14default_deleteIS1_EE5resetEPS1_.exit

_ZNSt10unique_ptrIN3net13QuicDecrypterESt14default_deleteIS1_EE5resetEPS1_.exit: ; preds = %3, %_ZNKSt14default_deleteIN3net13QuicDecrypterEEclEPS1_.exit.i.i
  %9 = getelementptr inbounds nuw i8, ptr %0, i64 312
  store i8 %1, ptr %9, align 8, !tbaa !270
  ret void
}